; Function Attrs: mustprogress uwtable
define void @_ZN12colvarmodule4atomC2ERKS0_(ptr nocapture noundef nonnull align 8 dereferenceable(120) %0, ptr nocapture noundef nonnull readonly align 8 dereferenceable(120) %1) unnamed_addr #2 align 2 {
  %3 = load i32, ptr %1, align 8
  store i32 %3, ptr %0, align 8
  %4 = getelementptr inbounds i8, ptr %0, i64 24
  tail call void @llvm.memset.p0.i64(ptr noundef nonnull align 8 dereferenceable(96) %4, i8 0, i64 96, i1 false)
  %5 = tail call noundef ptr @_ZN12colvarmodule4mainEv()
  %6 = load ptr, ptr @_ZN12colvarmodule5proxyE, align 8
  %7 = load i32, ptr %0, align 8
  %8 = getelementptr inbounds i8, ptr %6, i64 264
  %9 = sext i32 %7 to i64
  %10 = load ptr, ptr %8, align 8
  %11 = getelementptr inbounds i32, ptr %10, i64 %9
  %12 = load i32, ptr %11, align 4
  %13 = getelementptr inbounds i8, ptr %0, i64 4
  store i32 %12, ptr %13, align 4
  %14 = getelementptr inbounds i8, ptr %6, i64 288
  %15 = load ptr, ptr %14, align 8
  %16 = getelementptr inbounds i64, ptr %15, i64 %9
  %17 = load i64, ptr %16, align 8
  %18 = add i64 %17, 1
  store i64 %18, ptr %16, align 8
  %19 = load ptr, ptr @_ZN12colvarmodule5proxyE, align 8
  %20 = load i32, ptr %0, align 8
  %21 = getelementptr inbounds i8, ptr %19, i64 312
  %22 = sext i32 %20 to i64
  %23 = load ptr, ptr %21, align 8
  %24 = getelementptr inbounds double, ptr %23, i64 %22
  %25 = load double, ptr %24, align 8
  %26 = getelementptr inbounds i8, ptr %0, i64 8
  store double %25, ptr %26, align 8
  %27 = getelementptr inbounds i8, ptr %19, i64 336
  %28 = load ptr, ptr %27, align 8
  %29 = getelementptr inbounds double, ptr %28, i64 %22
  %30 = load double, ptr %29, align 8
  %31 = getelementptr inbounds i8, ptr %0, i64 16
  store double %30, ptr %31, align 8
  tail call void @llvm.memset.p0.i64(ptr noundef nonnull align 8 dereferenceable(96) %4, i8 0, i64 96, i1 false)
  ret void
}